target datalayout = "e-m:e-p270:32:32-p271:32:32-p272:64:64-i64:64-i128:128-f80:128-n8:16:32:64-S128"
target triple = "x86_64-pc-linux-gnu"

%struct._zend_executor_globals = type { %struct._zval_struct, %struct._zval_struct, [32 x ptr], ptr, ptr, %struct._zend_array, %struct._zend_array, ptr, i32, i8, %struct._zval_struct, i32, ptr, ptr, ptr, ptr, ptr, ptr, i64, ptr, ptr, i32, ptr, i32, i64, i32, i32, i32, i8, i8, %struct.zend_atomic_bool_s, %struct.zend_atomic_bool_s, ptr, i64, ptr, ptr, %struct._zend_array, %struct._zend_array, i32, i8, %struct._zval_struct, %struct._zval_struct, %struct._zend_stack, %struct._zend_stack, %struct._zend_stack, ptr, i32, i32, i64, ptr, ptr, ptr, %struct._zend_objects_store, %struct._zend_lazy_objects_store, ptr, ptr, ptr, [3 x %struct._zend_op], ptr, i8, i8, i64, i32, i32, ptr, [16 x %struct._HashTableIterator], ptr, %union._zend_function, %struct._zend_op, %struct._zend_array, i64, %struct.zend_get_gc_buffer, ptr, ptr, ptr, i64, i8, i32, ptr, ptr, i64, %struct._zend_call_stack, i64, i64, %struct._zend_strtod_state, [6 x ptr] }
%struct.zend_atomic_bool_s = type { i8 }
%struct._zval_struct = type { %union._zend_value, %union.anon, %union.anon.2 }
%union._zend_value = type { i64 }
%union.anon = type { i32 }
%union.anon.2 = type { i32 }
%struct._zend_stack = type { i32, i32, i32, ptr }
%struct._zend_objects_store = type { ptr, i32, i32, i32 }
%struct._zend_lazy_objects_store = type { %struct._zend_array }
%struct._HashTableIterator = type { ptr, i32, i32 }
%union._zend_function = type { %struct._zend_op_array }
%struct._zend_op_array = type { i8, [3 x i8], i32, ptr, ptr, ptr, i32, i32, ptr, ptr, ptr, ptr, i32, ptr, i32, i32, i32, ptr, ptr, ptr, ptr, ptr, i32, i32, ptr, ptr, ptr, i32, i32, i32, i32, ptr, ptr, [6 x ptr] }
%struct._zend_op = type { ptr, %union._znode_op, %union._znode_op, %union._znode_op, i32, i32, i8, i8, i8, i8 }
%union._znode_op = type { i32 }
%struct._zend_array = type { %struct._zend_refcounted_h, %union.anon.4, i32, %union.anon.6, i32, i32, i32, i32, i64, ptr }
%struct._zend_refcounted_h = type { i32, %union.anon.3 }
%union.anon.3 = type { i32 }
%union.anon.4 = type { i32 }
%union.anon.6 = type { ptr }
%struct.zend_get_gc_buffer = type { ptr, ptr, ptr }
%struct._zend_call_stack = type { ptr, i64 }
%struct._zend_strtod_state = type { [8 x ptr], ptr, ptr }
%struct._zend_fcall_info_cache = type { ptr, ptr, ptr, ptr, ptr }
%struct._zend_llist = type { ptr, ptr, i64, i64, ptr, i8, ptr }
%struct._zend_execute_data = type { ptr, ptr, ptr, ptr, %struct._zval_struct, ptr, ptr, ptr, ptr }
%struct._php_sqlite3_db_object = type { i8, i8, ptr, ptr, ptr, %struct._zend_fcall_info_cache, %struct._zend_llist, %struct._zend_object }
%struct._zend_object = type { %struct._zend_refcounted_h, i32, i32, ptr, ptr, ptr, [1 x %struct._zval_struct] }
%struct._zend_string = type { %struct._zend_refcounted_h, i64, i64, [1 x i8] }
%struct._php_sqlite3_stmt_object = type { ptr, ptr, i8, ptr, %struct._zend_object }
%struct._php_sqlite3_result_object = type { ptr, ptr, i8, i32, ptr, %struct._zend_object }

@executor_globals = external global %struct._zend_executor_globals, align 8
@.str.42 = private unnamed_addr constant [81 x i8] c"The SQLite3Result object has not been correctly initialised or is already closed\00", align 1

; Function Attrs: alwaysinline nounwind uwtable
define internal i32 @zend_gc_delref(ptr noundef %0) #8 {
  %2 = alloca ptr, align 8
  store ptr %0, ptr %2, align 8, !tbaa !206
  %3 = load ptr, ptr %2, align 8, !tbaa !206
  %4 = getelementptr inbounds nuw %struct._zend_refcounted_h, ptr %3, i32 0, i32 0
  %5 = load i32, ptr %4, align 4, !tbaa !208
  %6 = icmp ugt i32 %5, 0
  call void @llvm.assume(i1 %6)
  br label %7

7:                                                ; preds = %1
  br label %8

8:                                                ; preds = %7
  %9 = load ptr, ptr %2, align 8, !tbaa !206
  %10 = getelementptr inbounds nuw %struct._zend_refcounted_h, ptr %9, i32 0, i32 0
  %11 = load i32, ptr %10, align 4, !tbaa !208
  %12 = add i32 %11, -1
  store i32 %12, ptr %10, align 4, !tbaa !208
  ret i32 %12
}

; Function Attrs: alwaysinline nounwind uwtable
define internal i32 @zval_gc_flags(i32 noundef %0) #8 {
  %2 = alloca i32, align 4
  store i32 %0, ptr %2, align 4, !tbaa !63
  %3 = load i32, ptr %2, align 4, !tbaa !63
  %4 = lshr i32 %3, 0
  %5 = and i32 %4, 1008
  ret i32 %5
}

; Function Attrs: alwaysinline nounwind uwtable
define internal void @zend_string_release_ex(ptr noundef %0, i1 noundef zeroext %1) #8 {
  %3 = alloca ptr, align 8
  %4 = alloca i8, align 1
  store ptr %0, ptr %3, align 8, !tbaa !76
  %5 = zext i1 %1 to i8
  store i8 %5, ptr %4, align 1, !tbaa !79
  %6 = load ptr, ptr %3, align 8, !tbaa !76
  %7 = getelementptr inbounds nuw %struct._zend_string, ptr %6, i32 0, i32 0
  %8 = getelementptr inbounds nuw %struct._zend_refcounted_h, ptr %7, i32 0, i32 1
  %9 = load i32, ptr %8, align 4, !tbaa !13
  %10 = call i32 @zval_gc_flags(i32 noundef %9)
  %11 = and i32 %10, 64
  %12 = icmp ne i32 %11, 0
  br i1 %12, label %27, label %13

13:                                               ; preds = %2
  %14 = load ptr, ptr %3, align 8, !tbaa !76
  %15 = getelementptr inbounds nuw %struct._zend_string, ptr %14, i32 0, i32 0
  %16 = call i32 @zend_gc_delref(ptr noundef %15)
  %17 = icmp eq i32 %16, 0
  br i1 %17, label %18, label %26

18:                                               ; preds = %13
  %19 = load i8, ptr %4, align 1, !tbaa !79, !range !59, !noundef !60
  %20 = trunc i8 %19 to i1
  br i1 %20, label %21, label %23

21:                                               ; preds = %18
  %22 = load ptr, ptr %3, align 8, !tbaa !76
  call void @free(ptr noundef %22) #15
  br label %25

23:                                               ; preds = %18
  %24 = load ptr, ptr %3, align 8, !tbaa !76
  call void @_efree(ptr noundef %24)
  br label %25

25:                                               ; preds = %23, %21
  br label %26

26:                                               ; preds = %25, %13
  br label %27

27:                                               ; preds = %26, %2
  ret void
}

; Function Attrs: nounwind uwtable
define internal void @sqlite3result_clear_column_names_cache(ptr noundef %0) #0 {
  %2 = alloca ptr, align 8
  %3 = alloca i32, align 4
  store ptr %0, ptr %2, align 8, !tbaa !94
  %4 = load ptr, ptr %2, align 8, !tbaa !94
  %5 = getelementptr inbounds nuw %struct._php_sqlite3_result_object, ptr %4, i32 0, i32 4
  %6 = load ptr, ptr %5, align 8, !tbaa !100
  %7 = icmp ne ptr %6, null
  br i1 %7, label %8, label %31

8:                                                ; preds = %1
  call void @llvm.lifetime.start.p0(i64 4, ptr %3) #15
  store i32 0, ptr %3, align 4, !tbaa !63
  br label %9

9:                                                ; preds = %24, %8
  %10 = load i32, ptr %3, align 4, !tbaa !63
  %11 = load ptr, ptr %2, align 8, !tbaa !94
  %12 = getelementptr inbounds nuw %struct._php_sqlite3_result_object, ptr %11, i32 0, i32 3
  %13 = load i32, ptr %12, align 4, !tbaa !101
  %14 = icmp slt i32 %10, %13
  br i1 %14, label %16, label %15

15:                                               ; preds = %9
  call void @llvm.lifetime.end.p0(i64 4, ptr %3) #15
  br label %27

16:                                               ; preds = %9
  %17 = load ptr, ptr %2, align 8, !tbaa !94
  %18 = getelementptr inbounds nuw %struct._php_sqlite3_result_object, ptr %17, i32 0, i32 4
  %19 = load ptr, ptr %18, align 8, !tbaa !100
  %20 = load i32, ptr %3, align 4, !tbaa !63
  %21 = sext i32 %20 to i64
  %22 = getelementptr inbounds ptr, ptr %19, i64 %21
  %23 = load ptr, ptr %22, align 8, !tbaa !76
  call void @zend_string_release_ex(ptr noundef %23, i1 noundef zeroext false)
  br label %24

24:                                               ; preds = %16
  %25 = load i32, ptr %3, align 4, !tbaa !63
  %26 = add nsw i32 %25, 1
  store i32 %26, ptr %3, align 4, !tbaa !63
  br label %9

27:                                               ; preds = %15
  %28 = load ptr, ptr %2, align 8, !tbaa !94
  %29 = getelementptr inbounds nuw %struct._php_sqlite3_result_object, ptr %28, i32 0, i32 4
  %30 = load ptr, ptr %29, align 8, !tbaa !100
  call void @_efree(ptr noundef %30)
  br label %31

31:                                               ; preds = %27, %1
  %32 = load ptr, ptr %2, align 8, !tbaa !94
  %33 = getelementptr inbounds nuw %struct._php_sqlite3_result_object, ptr %32, i32 0, i32 4
  store ptr null, ptr %33, align 8, !tbaa !100
  %34 = load ptr, ptr %2, align 8, !tbaa !94
  %35 = getelementptr inbounds nuw %struct._php_sqlite3_result_object, ptr %34, i32 0, i32 3
  store i32 -1, ptr %35, align 4, !tbaa !101
  ret void
}

; Function Attrs: inlinehint nounwind uwtable
define internal ptr @php_sqlite3_result_from_obj(ptr noundef %0) #2 {
  %2 = alloca ptr, align 8
  store ptr %0, ptr %2, align 8, !tbaa !67
  %3 = load ptr, ptr %2, align 8, !tbaa !67
  %4 = getelementptr inbounds i8, ptr %3, i64 -32
  ret ptr %4
}

; Function Attrs: nounwind uwtable
define hidden void @zim_SQLite3Result_finalize(ptr noundef %0, ptr noundef %1) #0 {
  %3 = alloca ptr, align 8
  %4 = alloca ptr, align 8
  %5 = alloca ptr, align 8
  %6 = alloca ptr, align 8
  %7 = alloca i32, align 4
  store ptr %0, ptr %3, align 8, !tbaa !4
  store ptr %1, ptr %4, align 8, !tbaa !9
  call void @llvm.lifetime.start.p0(i64 8, ptr %5) #15
  call void @llvm.lifetime.start.p0(i64 8, ptr %6) #15
  %8 = load ptr, ptr %3, align 8, !tbaa !4
  %9 = getelementptr inbounds nuw %struct._zend_execute_data, ptr %8, i32 0, i32 4
  store ptr %9, ptr %6, align 8, !tbaa !9
  %10 = load ptr, ptr %6, align 8, !tbaa !9
  %11 = getelementptr inbounds nuw %struct._zval_struct, ptr %10, i32 0, i32 0
  %12 = load ptr, ptr %11, align 8, !tbaa !13
  %13 = call ptr @php_sqlite3_result_from_obj(ptr noundef %12)
  store ptr %13, ptr %5, align 8, !tbaa !94
  br label %14

14:                                               ; preds = %2
  %15 = load ptr, ptr %3, align 8, !tbaa !4
  %16 = getelementptr inbounds nuw %struct._zend_execute_data, ptr %15, i32 0, i32 4
  %17 = getelementptr inbounds nuw %struct._zval_struct, ptr %16, i32 0, i32 2
  %18 = load i32, ptr %17, align 4, !tbaa !13
  %19 = icmp ne i32 %18, 0
  %20 = xor i1 %19, true
  %21 = xor i1 %20, true
  %22 = zext i1 %21 to i32
  %23 = sext i32 %22 to i64
  %24 = call i64 @llvm.expect.i64(i64 %23, i64 0)
  %25 = icmp ne i64 %24, 0
  br i1 %25, label %26, label %27

26:                                               ; preds = %14
  call void @zend_wrong_parameters_none_error()
  store i32 1, ptr %7, align 4
  br label %76

27:                                               ; preds = %14
  br label %28

28:                                               ; preds = %27
  br label %29

29:                                               ; preds = %28
  %30 = load ptr, ptr %5, align 8, !tbaa !94
  %31 = getelementptr inbounds nuw %struct._php_sqlite3_result_object, ptr %30, i32 0, i32 0
  %32 = load ptr, ptr %31, align 8, !tbaa !96
  %33 = icmp ne ptr %32, null
  br i1 %33, label %34, label %41

34:                                               ; preds = %29
  %35 = load ptr, ptr %5, align 8, !tbaa !94
  %36 = getelementptr inbounds nuw %struct._php_sqlite3_result_object, ptr %35, i32 0, i32 1
  %37 = load ptr, ptr %36, align 8, !tbaa !99
  %38 = getelementptr inbounds nuw %struct._php_sqlite3_stmt_object, ptr %37, i32 0, i32 2
  %39 = load i8, ptr %38, align 8, !tbaa !88, !range !59, !noundef !60
  %40 = trunc i8 %39 to i1
  br i1 %40, label %47, label %41

41:                                               ; preds = %34, %29
  call void (ptr, ptr, ...) @zend_throw_error(ptr noundef null, ptr noundef @.str.42)
  br label %42

42:                                               ; preds = %41
  %43 = load ptr, ptr getelementptr inbounds nuw (%struct._zend_executor_globals, ptr @executor_globals, i32 0, i32 54), align 8, !tbaa !16
  %44 = icmp ne ptr %43, null
  call void @llvm.assume(i1 %44)
  store i32 1, ptr %7, align 4
  br label %76

45:                                               ; No predecessors!
  br label %46

46:                                               ; preds = %45
  br label %47

47:                                               ; preds = %46, %34
  %48 = load ptr, ptr %5, align 8, !tbaa !94
  call void @sqlite3result_clear_column_names_cache(ptr noundef %48)
  %49 = load ptr, ptr %5, align 8, !tbaa !94
  %50 = getelementptr inbounds nuw %struct._php_sqlite3_result_object, ptr %49, i32 0, i32 2
  %51 = load i8, ptr %50, align 8, !tbaa !169, !range !59, !noundef !60
  %52 = trunc i8 %51 to i1
  br i1 %52, label %60, label %53

53:                                               ; preds = %47
  %54 = load ptr, ptr %5, align 8, !tbaa !94
  %55 = getelementptr inbounds nuw %struct._php_sqlite3_result_object, ptr %54, i32 0, i32 0
  %56 = load ptr, ptr %55, align 8, !tbaa !96
  %57 = getelementptr inbounds nuw %struct._php_sqlite3_db_object, ptr %56, i32 0, i32 6
  %58 = load ptr, ptr %5, align 8, !tbaa !94
  %59 = getelementptr inbounds nuw %struct._php_sqlite3_result_object, ptr %58, i32 0, i32 1
  call void @zend_llist_del_element(ptr noundef %57, ptr noundef %59, ptr noundef @php_sqlite3_compare_stmt_free)
  br label %67

60:                                               ; preds = %47
  %61 = load ptr, ptr %5, align 8, !tbaa !94
  %62 = getelementptr inbounds nuw %struct._php_sqlite3_result_object, ptr %61, i32 0, i32 1
  %63 = load ptr, ptr %62, align 8, !tbaa !99
  %64 = getelementptr inbounds nuw %struct._php_sqlite3_stmt_object, ptr %63, i32 0, i32 0
  %65 = load ptr, ptr %64, align 8, !tbaa !102
  %66 = call i32 @sqlite3_reset(ptr noundef %65)
  br label %67

67:                                               ; preds = %60, %53
  br label %68

68:                                               ; preds = %67
  br label %69

69:                                               ; preds = %68
  %70 = load ptr, ptr %4, align 8, !tbaa !9
  %71 = getelementptr inbounds nuw %struct._zval_struct, ptr %70, i32 0, i32 1
  store i32 3, ptr %71, align 8, !tbaa !13
  br label %72

72:                                               ; preds = %69
  br label %73

73:                                               ; preds = %72
  store i32 1, ptr %7, align 4
  br label %76

74:                                               ; No predecessors!
  br label %75

75:                                               ; preds = %74
  store i32 0, ptr %7, align 4
  br label %76

76:                                               ; preds = %75, %73, %42, %26
  call void @llvm.lifetime.end.p0(i64 8, ptr %6) #15
  call void @llvm.lifetime.end.p0(i64 8, ptr %5) #15
  %77 = load i32, ptr %7, align 4
  switch i32 %77, label %79 [
    i32 0, label %78
    i32 1, label %78
  ]

78:                                               ; preds = %76, %76
  ret void

79:                                               ; preds = %76
  unreachable
}