; Function Attrs: nounwind uwtable
define hidden void @zim_SQLite3Result_finalize(ptr noundef readonly captures(none) %0, ptr noundef writeonly captures(none) %1) #0 {
  %3 = getelementptr inbounds nuw i8, ptr %0, i64 32
  %4 = load ptr, ptr %3, align 8, !tbaa !8
  %5 = getelementptr inbounds i8, ptr %4, i64 -32
  %6 = getelementptr inbounds nuw i8, ptr %0, i64 44
  %7 = load i32, ptr %6, align 4, !tbaa !8
  %.not = icmp eq i32 %7, 0
  br i1 %.not, label %9, label %8, !prof !75

8:                                                ; preds = %2
  tail call void @zend_wrong_parameters_none_error() #17
  br label %56

9:                                                ; preds = %2
  %10 = load ptr, ptr %5, align 8, !tbaa !94
  %.not11 = icmp eq ptr %10, null
  br i1 %.not11, label %17, label %11

11:                                               ; preds = %9
  %12 = getelementptr inbounds i8, ptr %4, i64 -24
  %13 = load ptr, ptr %12, align 8, !tbaa !97
  %14 = getelementptr inbounds nuw i8, ptr %13, i64 16
  %15 = load i8, ptr %14, align 8, !tbaa !88, !range !55, !noundef !56
  %16 = trunc nuw i8 %15 to i1
  br i1 %16, label %20, label %17

17:                                               ; preds = %11, %9
  tail call void (ptr, ptr, ...) @zend_throw_error(ptr noundef null, ptr noundef nonnull @.str.42) #17
  %18 = load ptr, ptr getelementptr inbounds nuw (i8, ptr @executor_globals, i64 960), align 8, !tbaa !9
  %19 = icmp ne ptr %18, null
  tail call void @llvm.assume(i1 %19)
  br label %56

20:                                               ; preds = %11
  %21 = getelementptr inbounds i8, ptr %4, i64 -8
  %22 = load ptr, ptr %21, align 8, !tbaa !98
  %.not.i = icmp eq ptr %22, null
  br i1 %.not.i, label %sqlite3result_clear_column_names_cache.exit, label %.preheader.i

.preheader.i:                                     ; preds = %20
  %23 = getelementptr inbounds i8, ptr %4, i64 -12
  %24 = load i32, ptr %23, align 4, !tbaa !99
  %25 = icmp sgt i32 %24, 0
  br i1 %25, label %.lr.ph.i, label %._crit_edge.i

._crit_edge.loopexit.i:                           ; preds = %zend_string_release_ex.exit.i
  %.pre10.i = load ptr, ptr %21, align 8, !tbaa !98
  br label %._crit_edge.i

._crit_edge.i:                                    ; preds = %._crit_edge.loopexit.i, %.preheader.i
  %26 = phi ptr [ %.pre10.i, %._crit_edge.loopexit.i ], [ %22, %.preheader.i ]
  tail call void @_efree(ptr noundef %26) #17
  br label %sqlite3result_clear_column_names_cache.exit

.lr.ph.i:                                         ; preds = %.preheader.i, %zend_string_release_ex.exit.i
  %27 = phi i32 [ %40, %zend_string_release_ex.exit.i ], [ %24, %.preheader.i ]
  %indvars.iv.i = phi i64 [ %indvars.iv.next.i, %zend_string_release_ex.exit.i ], [ 0, %.preheader.i ]
  %28 = load ptr, ptr %21, align 8, !tbaa !98
  %29 = getelementptr inbounds nuw ptr, ptr %28, i64 %indvars.iv.i
  %30 = load ptr, ptr %29, align 8, !tbaa !79
  %31 = getelementptr inbounds nuw i8, ptr %30, i64 4
  %32 = load i32, ptr %31, align 4, !tbaa !8
  %33 = and i32 %32, 64
  %.not.i.i = icmp eq i32 %33, 0
  br i1 %.not.i.i, label %34, label %zend_string_release_ex.exit.i

34:                                               ; preds = %.lr.ph.i
  %35 = load i32, ptr %30, align 4, !tbaa !70
  %36 = icmp ne i32 %35, 0
  tail call void @llvm.assume(i1 %36)
  %37 = add i32 %35, -1
  store i32 %37, ptr %30, align 4, !tbaa !70
  %38 = icmp eq i32 %37, 0
  br i1 %38, label %39, label %zend_string_release_ex.exit.i

39:                                               ; preds = %34
  tail call void @_efree(ptr noundef nonnull %30) #17
  %.pre.i = load i32, ptr %23, align 4, !tbaa !99
  br label %zend_string_release_ex.exit.i

zend_string_release_ex.exit.i:                    ; preds = %39, %34, %.lr.ph.i
  %40 = phi i32 [ %27, %.lr.ph.i ], [ %27, %34 ], [ %.pre.i, %39 ]
  %indvars.iv.next.i = add nuw nsw i64 %indvars.iv.i, 1
  %41 = sext i32 %40 to i64
  %42 = icmp slt i64 %indvars.iv.next.i, %41
  br i1 %42, label %.lr.ph.i, label %._crit_edge.loopexit.i

sqlite3result_clear_column_names_cache.exit:      ; preds = %20, %._crit_edge.i
  store ptr null, ptr %21, align 8, !tbaa !98
  %43 = getelementptr inbounds i8, ptr %4, i64 -12
  store i32 -1, ptr %43, align 4, !tbaa !99
  %44 = getelementptr inbounds i8, ptr %4, i64 -16
  %45 = load i8, ptr %44, align 8, !tbaa !148, !range !55, !noundef !56
  %46 = trunc nuw i8 %45 to i1
  br i1 %46, label %50, label %47

47:                                               ; preds = %sqlite3result_clear_column_names_cache.exit
  %48 = load ptr, ptr %5, align 8, !tbaa !94
  %49 = getelementptr inbounds nuw i8, ptr %48, i64 72
  tail call void @zend_llist_del_element(ptr noundef nonnull %49, ptr noundef nonnull %12, ptr noundef nonnull @php_sqlite3_compare_stmt_free) #17
  br label %54

50:                                               ; preds = %sqlite3result_clear_column_names_cache.exit
  %51 = load ptr, ptr %12, align 8, !tbaa !97
  %52 = load ptr, ptr %51, align 8, !tbaa !100
  %53 = tail call i32 @sqlite3_reset(ptr noundef %52) #17
  br label %54

54:                                               ; preds = %50, %47
  %55 = getelementptr inbounds nuw i8, ptr %1, i64 8
  store i32 3, ptr %55, align 8, !tbaa !8
  br label %56

56:                                               ; preds = %54, %17, %8
  ret void
}